(lp0
(S'cppflags'
p1
ccopy_reg
_reconstructor
p2
(cino.utils
SpaceList
p3
c__builtin__
list
p4
(lp5
S'-mmcu=atmega328p'
p6
aS'-DF_CPU=16000000L'
p7
aS'-DARDUINO=105'
p8
aS'-I/usr/share/arduino/hardware/arduino/cores/arduino'
p9
aS'-ffunction-sections'
p10
aS'-fdata-sections'
p11
aS'-g'
p12
aS'-Os'
p13
aS'-w'
p14
aS'-I/usr/share/arduino/hardware/arduino/variants/standard'
p15
aS'-I/usr/share/arduino/libraries/Servo'
p16
aS'-I/usr/share/arduino/hardware/arduino/cores/arduino'
p17
aS'-I/usr/share/arduino/hardware/arduino/cores/arduino/avr-libc'
p18
atp19
Rp20
tp21
a(S'cxx'
p22
S'/usr/share/arduino/hardware/tools/avr/bin/avr-g++'
p23
tp24
a(S'arduino_libraries_dir'
p25
S'/usr/share/arduino/libraries'
p26
tp27
a(S'avrdude'
p28
S'/usr/share/arduino/hardware/tools/avrdude'
p29
tp30
a(S'ar'
p31
S'/usr/share/arduino/hardware/tools/avr/bin/avr-ar'
p32
tp33
a(S'names'
p34
(dp35
S'cpp'
p36
S'%s.cpp'
p37
sS'obj'
p38
S'%s.o'
p39
sS'lib'
p40
S'lib%s.a'
p41
sS'deps'
p42
S'%s.d'
p43
stp44
a(S'ldflags'
p45
g2
(g3
g4
(lp46
g6
aS'-Wl,-Os'
p47
aS'-Wl,--gc-sections'
p48
atp49
Rp50
tp51
a(S'arduino_lib_version'
p52
g2
(cino.environment
Version
p53
c__builtin__
tuple
p54
(I1
I0
I5
tp55
tp56
Rp57
tp58
a(S'objcopy'
p59
S'/usr/share/arduino/hardware/tools/avr/bin/avr-objcopy'
p60
tp61
a(S'board_models'
p62
cino.environment
BoardModels
p63
((lp64
(lp65
S'uno'
p66
a(dp67
S'bootloader'
p68
(dp69
S'extended_fuses'
p70
S'0xfd'
p71
sS'high_fuses'
p72
S'0xde'
p73
sS'low_fuses'
p74
S'0xff'
p75
sS'lock_bits'
p76
S'0xcf'
p77
sS'file'
p78
S'optiboot_atmega328.hex'
p79
sS'path'
p80
S'optiboot'
p81
sS'unlock_bits'
p82
S'0xff'
p83
ssS'upload'
p84
(dp85
S'protocol'
p86
S'arduino'
p87
sS'maximum_size'
p88
S'32256'
p89
sS'speed'
p90
S'115200'
p91
ssS'build'
p92
(dp93
S'core'
p94
S'arduino'
p95
sS'mcu'
p96
S'atmega328p'
p97
sS'f_cpu'
p98
S'16000000L'
p99
sS'variant'
p100
S'standard'
p101
ssS'name'
p102
S'Arduino Uno'
p103
saa(lp104
S'atmega328'
p105
a(dp106
S'bootloader'
p107
(dp108
S'extended_fuses'
p109
S'0xfd'
p110
sS'high_fuses'
p111
S'0xDA'
p112
sS'low_fuses'
p113
S'0xFF'
p114
sS'lock_bits'
p115
S'0xcf'
p116
sS'file'
p117
S'ATmegaBOOT_168_atmega328.hex'
p118
sS'path'
p119
S'atmega'
p120
sS'unlock_bits'
p121
S'0xff'
p122
ssS'upload'
p123
(dp124
S'protocol'
p125
S'arduino'
p126
sS'maximum_size'
p127
S'30720'
p128
sS'speed'
p129
S'57600'
p130
ssS'build'
p131
(dp132
S'core'
p133
S'arduino'
p134
sS'mcu'
p135
S'atmega328p'
p136
sS'f_cpu'
p137
S'16000000L'
p138
sS'variant'
p139
S'standard'
p140
ssS'name'
p141
S'Arduino Duemilanove w/ ATmega328'
p142
saa(lp143
S'diecimila'
p144
a(dp145
S'bootloader'
p146
(dp147
S'extended_fuses'
p148
S'0xf8'
p149
sS'high_fuses'
p150
S'0xdd'
p151
sS'low_fuses'
p152
S'0xff'
p153
sS'lock_bits'
p154
S'0xcf'
p155
sS'file'
p156
S'ATmegaBOOT_168_diecimila.hex'
p157
sS'path'
p158
S'atmega'
p159
sS'unlock_bits'
p160
S'0xff'
p161
ssS'upload'
p162
(dp163
S'protocol'
p164
S'arduino'
p165
sS'maximum_size'
p166
S'14336'
p167
sS'speed'
p168
S'19200'
p169
ssS'build'
p170
(dp171
S'core'
p172
S'arduino'
p173
sS'mcu'
p174
S'atmega168'
p175
sS'f_cpu'
p176
S'16000000L'
p177
sS'variant'
p178
S'standard'
p179
ssS'name'
p180
S'Arduino Diecimila or Duemilanove w/ ATmega168'
p181
saa(lp182
S'nano328'
p183
a(dp184
S'bootloader'
p185
(dp186
S'extended_fuses'
p187
S'0xfd'
p188
sS'high_fuses'
p189
S'0xDA'
p190
sS'low_fuses'
p191
S'0xFF'
p192
sS'lock_bits'
p193
S'0xcf'
p194
sS'file'
p195
S'ATmegaBOOT_168_atmega328.hex'
p196
sS'path'
p197
S'atmega'
p198
sS'unlock_bits'
p199
S'0xff'
p200
ssS'upload'
p201
(dp202
S'protocol'
p203
S'arduino'
p204
sS'maximum_size'
p205
S'30720'
p206
sS'speed'
p207
S'57600'
p208
ssS'build'
p209
(dp210
S'core'
p211
S'arduino'
p212
sS'mcu'
p213
S'atmega328p'
p214
sS'f_cpu'
p215
S'16000000L'
p216
sS'variant'
p217
S'eightanaloginputs'
p218
ssS'name'
p219
S'Arduino Nano w/ ATmega328'
p220
saa(lp221
S'nano'
p222
a(dp223
S'bootloader'
p224
(dp225
S'extended_fuses'
p226
S'0xf8'
p227
sS'high_fuses'
p228
S'0xdd'
p229
sS'low_fuses'
p230
S'0xff'
p231
sS'lock_bits'
p232
S'0xcf'
p233
sS'file'
p234
S'ATmegaBOOT_168_diecimila.hex'
p235
sS'path'
p236
S'atmega'
p237
sS'unlock_bits'
p238
S'0xff'
p239
ssS'upload'
p240
(dp241
S'protocol'
p242
S'arduino'
p243
sS'maximum_size'
p244
S'14336'
p245
sS'speed'
p246
S'19200'
p247
ssS'build'
p248
(dp249
S'core'
p250
S'arduino'
p251
sS'mcu'
p252
S'atmega168'
p253
sS'f_cpu'
p254
S'16000000L'
p255
sS'variant'
p256
S'eightanaloginputs'
p257
ssS'name'
p258
S'Arduino Nano w/ ATmega168'
p259
saa(lp260
S'mega2560'
p261
a(dp262
S'bootloader'
p263
(dp264
S'extended_fuses'
p265
S'0xFD'
p266
sS'high_fuses'
p267
S'0xD8'
p268
sS'low_fuses'
p269
S'0xFF'
p270
sS'lock_bits'
p271
S'0xcf'
p272
sS'file'
p273
S'stk500boot_v2_mega2560.hex'
p274
sS'path'
p275
S'stk500v2'
p276
sS'unlock_bits'
p277
S'0xff'
p278
ssS'upload'
p279
(dp280
S'protocol'
p281
S'wiring'
p282
sS'maximum_size'
p283
S'258048'
p284
sS'speed'
p285
S'115200'
p286
ssS'build'
p287
(dp288
S'core'
p289
S'arduino'
p290
sS'mcu'
p291
S'atmega2560'
p292
sS'f_cpu'
p293
S'16000000L'
p294
sS'variant'
p295
S'mega'
p296
ssS'name'
p297
S'Arduino Mega 2560 or Mega ADK'
p298
saa(lp299
S'mega'
p300
a(dp301
S'bootloader'
p302
(dp303
S'extended_fuses'
p304
S'0xF5'
p305
sS'high_fuses'
p306
S'0xDA'
p307
sS'low_fuses'
p308
S'0xFF'
p309
sS'lock_bits'
p310
S'0xcf'
p311
sS'file'
p312
S'ATmegaBOOT_168_atmega1280.hex'
p313
sS'path'
p314
S'atmega'
p315
sS'unlock_bits'
p316
S'0xff'
p317
ssS'upload'
p318
(dp319
S'protocol'
p320
S'arduino'
p321
sS'maximum_size'
p322
S'126976'
p323
sS'speed'
p324
S'57600'
p325
ssS'build'
p326
(dp327
S'core'
p328
S'arduino'
p329
sS'mcu'
p330
S'atmega1280'
p331
sS'f_cpu'
p332
S'16000000L'
p333
sS'variant'
p334
S'mega'
p335
ssS'name'
p336
S'Arduino Mega (ATmega1280)'
p337
saa(lp338
S'leonardo'
p339
a(dp340
S'bootloader'
p341
(dp342
S'extended_fuses'
p343
S'0xcb'
p344
sS'high_fuses'
p345
S'0xd8'
p346
sS'low_fuses'
p347
S'0xff'
p348
sS'lock_bits'
p349
S'0xef'
p350
sS'file'
p351
S'Caterina-Leonardo.hex'
p352
sS'path'
p353
S'caterina'
p354
sS'unlock_bits'
p355
S'0xff'
p356
ssS'upload'
p357
(dp358
S'protocol'
p359
S'avr109'
p360
sS'maximum_size'
p361
S'28672'
p362
sS'speed'
p363
S'57600'
p364
sS'disable_flushing'
p365
S'true'
p366
ssS'build'
p367
(dp368
S'core'
p369
S'arduino'
p370
sS'f_cpu'
p371
S'16000000L'
p372
sS'vid'
p373
S'0x2341'
p374
sS'pid'
p375
S'0x8036'
p376
sS'variant'
p377
S'leonardo'
p378
sS'mcu'
p379
S'atmega32u4'
p380
ssS'name'
p381
S'Arduino Leonardo'
p382
saa(lp383
S'esplora'
p384
a(dp385
S'bootloader'
p386
(dp387
S'extended_fuses'
p388
S'0xcb'
p389
sS'high_fuses'
p390
S'0xd8'
p391
sS'low_fuses'
p392
S'0xff'
p393
sS'lock_bits'
p394
S'0xef'
p395
sS'file'
p396
S'Caterina-Esplora.hex'
p397
sS'path'
p398
S'caterina'
p399
sS'unlock_bits'
p400
S'0xff'
p401
ssS'upload'
p402
(dp403
S'protocol'
p404
S'avr109'
p405
sS'maximum_size'
p406
S'28672'
p407
sS'speed'
p408
S'57600'
p409
sS'disable_flushing'
p410
S'true'
p411
ssS'build'
p412
(dp413
S'core'
p414
S'arduino'
p415
sS'f_cpu'
p416
S'16000000L'
p417
sS'vid'
p418
S'0x2341'
p419
sS'pid'
p420
S'0x803C'
p421
sS'variant'
p422
S'leonardo'
p423
sS'mcu'
p424
S'atmega32u4'
p425
ssS'name'
p426
S'Arduino Esplora'
p427
saa(lp428
S'micro'
p429
a(dp430
S'bootloader'
p431
(dp432
S'extended_fuses'
p433
S'0xcb'
p434
sS'high_fuses'
p435
S'0xd8'
p436
sS'low_fuses'
p437
S'0xff'
p438
sS'lock_bits'
p439
S'0xef'
p440
sS'file'
p441
S'Caterina-Micro.hex'
p442
sS'path'
p443
S'caterina'
p444
sS'unlock_bits'
p445
S'0xff'
p446
ssS'upload'
p447
(dp448
S'protocol'
p449
S'avr109'
p450
sS'maximum_size'
p451
S'28672'
p452
sS'speed'
p453
S'57600'
p454
sS'disable_flushing'
p455
S'true'
p456
ssS'build'
p457
(dp458
S'core'
p459
S'arduino'
p460
sS'f_cpu'
p461
S'16000000L'
p462
sS'vid'
p463
S'0x2341'
p464
sS'pid'
p465
S'0x8037'
p466
sS'variant'
p467
S'micro'
p468
sS'mcu'
p469
S'atmega32u4'
p470
ssS'name'
p471
S'Arduino Micro'
p472
saa(lp473
S'mini328'
p474
a(dp475
S'bootloader'
p476
(dp477
S'extended_fuses'
p478
S'0xfd'
p479
sS'high_fuses'
p480
S'0xd8'
p481
sS'low_fuses'
p482
S'0xff'
p483
sS'lock_bits'
p484
S'0xcf'
p485
sS'file'
p486
S'optiboot_atmega328-Mini.hex'
p487
sS'path'
p488
S'optiboot'
p489
sS'unlock_bits'
p490
S'0xff'
p491
ssS'upload'
p492
(dp493
S'protocol'
p494
S'arduino'
p495
sS'maximum_size'
p496
S'28672'
p497
sS'speed'
p498
S'115200'
p499
ssS'build'
p500
(dp501
S'core'
p502
S'arduino'
p503
sS'mcu'
p504
S'atmega328p'
p505
sS'f_cpu'
p506
S'16000000L'
p507
sS'variant'
p508
S'eightanaloginputs'
p509
ssS'name'
p510
S'Arduino Mini w/ ATmega328'
p511
saa(lp512
S'mini'
p513
a(dp514
S'bootloader'
p515
(dp516
S'extended_fuses'
p517
S'0xf8'
p518
sS'high_fuses'
p519
S'0xdd'
p520
sS'low_fuses'
p521
S'0xff'
p522
sS'lock_bits'
p523
S'0xcf'
p524
sS'file'
p525
S'ATmegaBOOT_168_ng.hex'
p526
sS'path'
p527
S'atmega'
p528
sS'unlock_bits'
p529
S'0xff'
p530
ssS'upload'
p531
(dp532
S'protocol'
p533
S'arduino'
p534
sS'maximum_size'
p535
S'14336'
p536
sS'speed'
p537
S'19200'
p538
ssS'build'
p539
(dp540
S'core'
p541
S'arduino'
p542
sS'mcu'
p543
S'atmega168'
p544
sS'f_cpu'
p545
S'16000000L'
p546
sS'variant'
p547
S'eightanaloginputs'
p548
ssS'name'
p549
S'Arduino Mini w/ ATmega168'
p550
saa(lp551
S'ethernet'
p552
a(dp553
S'bootloader'
p554
(dp555
S'extended_fuses'
p556
S'0xfd'
p557
sS'high_fuses'
p558
S'0xde'
p559
sS'low_fuses'
p560
S'0xff'
p561
sS'lock_bits'
p562
S'0xcf'
p563
sS'file'
p564
S'optiboot_atmega328.hex'
p565
sS'path'
p566
S'optiboot'
p567
sS'unlock_bits'
p568
S'0xff'
p569
ssS'upload'
p570
(dp571
S'protocol'
p572
S'arduino'
p573
sS'maximum_size'
p574
S'32256'
p575
sS'speed'
p576
S'115200'
p577
ssS'build'
p578
(dp579
S'variant'
p580
S'standard'
p581
sS'mcu'
p582
S'atmega328p'
p583
sS'f_cpu'
p584
S'16000000L'
p585
sS'core'
p586
S'arduino'
p587
ssS'name'
p588
S'Arduino Ethernet'
p589
saa(lp590
S'fio'
p591
a(dp592
S'bootloader'
p593
(dp594
S'extended_fuses'
p595
S'0xfd'
p596
sS'high_fuses'
p597
S'0xDA'
p598
sS'low_fuses'
p599
S'0xFF'
p600
sS'lock_bits'
p601
S'0xcf'
p602
sS'file'
p603
S'ATmegaBOOT_168_atmega328_pro_8MHz.hex'
p604
sS'path'
p605
S'arduino:atmega'
p606
sS'unlock_bits'
p607
S'0xff'
p608
ssS'upload'
p609
(dp610
S'protocol'
p611
S'arduino'
p612
sS'maximum_size'
p613
S'30720'
p614
sS'speed'
p615
S'57600'
p616
ssS'build'
p617
(dp618
S'core'
p619
S'arduino'
p620
sS'mcu'
p621
S'atmega328p'
p622
sS'f_cpu'
p623
S'8000000L'
p624
sS'variant'
p625
S'eightanaloginputs'
p626
ssS'name'
p627
S'Arduino Fio'
p628
saa(lp629
S'bt328'
p630
a(dp631
S'bootloader'
p632
(dp633
S'extended_fuses'
p634
S'0xfd'
p635
sS'high_fuses'
p636
S'0xd8'
p637
sS'low_fuses'
p638
S'0xff'
p639
sS'lock_bits'
p640
S'0xcf'
p641
sS'file'
p642
S'ATmegaBOOT_168_atmega328_bt.hex'
p643
sS'path'
p644
S'bt'
p645
sS'unlock_bits'
p646
S'0xff'
p647
ssS'upload'
p648
(dp649
S'protocol'
p650
S'arduino'
p651
sS'maximum_size'
p652
S'28672'
p653
sS'speed'
p654
S'19200'
p655
sS'disable_flushing'
p656
S'true'
p657
ssS'build'
p658
(dp659
S'core'
p660
S'arduino'
p661
sS'mcu'
p662
S'atmega328p'
p663
sS'f_cpu'
p664
S'16000000L'
p665
sS'variant'
p666
S'eightanaloginputs'
p667
ssS'name'
p668
S'Arduino BT w/ ATmega328'
p669
saa(lp670
S'bt'
p671
a(dp672
S'bootloader'
p673
(dp674
S'extended_fuses'
p675
S'0xf8'
p676
sS'high_fuses'
p677
S'0xdd'
p678
sS'low_fuses'
p679
S'0xff'
p680
sS'lock_bits'
p681
S'0xcf'
p682
sS'file'
p683
S'ATmegaBOOT_168.hex'
p684
sS'path'
p685
S'bt'
p686
sS'unlock_bits'
p687
S'0xff'
p688
ssS'upload'
p689
(dp690
S'protocol'
p691
S'arduino'
p692
sS'maximum_size'
p693
S'14336'
p694
sS'speed'
p695
S'19200'
p696
sS'disable_flushing'
p697
S'true'
p698
ssS'build'
p699
(dp700
S'core'
p701
S'arduino'
p702
sS'mcu'
p703
S'atmega168'
p704
sS'f_cpu'
p705
S'16000000L'
p706
sS'variant'
p707
S'eightanaloginputs'
p708
ssS'name'
p709
S'Arduino BT w/ ATmega168'
p710
saa(lp711
S'LilyPadUSB'
p712
a(dp713
S'bootloader'
p714
(dp715
S'extended_fuses'
p716
S'0xce'
p717
sS'high_fuses'
p718
S'0xd8'
p719
sS'low_fuses'
p720
S'0xff'
p721
sS'lock_bits'
p722
S'0xef'
p723
sS'file'
p724
S'Caterina-LilyPadUSB.hex'
p725
sS'path'
p726
S'caterina-LilyPadUSB'
p727
sS'unlock_bits'
p728
S'0xff'
p729
ssS'upload'
p730
(dp731
S'protocol'
p732
S'avr109'
p733
sS'maximum_size'
p734
S'28672'
p735
sS'speed'
p736
S'57600'
p737
sS'disable_flushing'
p738
S'true'
p739
ssS'build'
p740
(dp741
S'core'
p742
S'arduino'
p743
sS'f_cpu'
p744
S'8000000L'
p745
sS'vid'
p746
S'0x1B4F'
p747
sS'pid'
p748
S'0x9208'
p749
sS'variant'
p750
S'leonardo'
p751
sS'mcu'
p752
S'atmega32u4'
p753
ssS'name'
p754
S'LilyPad Arduino USB'
p755
saa(lp756
S'lilypad328'
p757
a(dp758
S'bootloader'
p759
(dp760
S'extended_fuses'
p761
S'0xfd'
p762
sS'high_fuses'
p763
S'0xDA'
p764
sS'low_fuses'
p765
S'0xFF'
p766
sS'lock_bits'
p767
S'0xcf'
p768
sS'file'
p769
S'ATmegaBOOT_168_atmega328_pro_8MHz.hex'
p770
sS'path'
p771
S'atmega'
p772
sS'unlock_bits'
p773
S'0xff'
p774
ssS'upload'
p775
(dp776
S'protocol'
p777
S'arduino'
p778
sS'maximum_size'
p779
S'30720'
p780
sS'speed'
p781
S'57600'
p782
ssS'build'
p783
(dp784
S'core'
p785
S'arduino'
p786
sS'mcu'
p787
S'atmega328p'
p788
sS'f_cpu'
p789
S'8000000L'
p790
sS'variant'
p791
S'standard'
p792
ssS'name'
p793
S'LilyPad Arduino w/ ATmega328'
p794
saa(lp795
S'lilypad'
p796
a(dp797
S'bootloader'
p798
(dp799
S'extended_fuses'
p800
S'0xf8'
p801
sS'high_fuses'
p802
S'0xdd'
p803
sS'low_fuses'
p804
S'0xe2'
p805
sS'lock_bits'
p806
S'0xcf'
p807
sS'file'
p808
S'LilyPadBOOT_168.hex'
p809
sS'path'
p810
S'lilypad'
p811
sS'unlock_bits'
p812
S'0xff'
p813
ssS'upload'
p814
(dp815
S'protocol'
p816
S'arduino'
p817
sS'maximum_size'
p818
S'14336'
p819
sS'speed'
p820
S'19200'
p821
ssS'build'
p822
(dp823
S'core'
p824
S'arduino'
p825
sS'mcu'
p826
S'atmega168'
p827
sS'f_cpu'
p828
S'8000000L'
p829
sS'variant'
p830
S'standard'
p831
ssS'name'
p832
S'LilyPad Arduino w/ ATmega168'
p833
saa(lp834
S'pro5v328'
p835
a(dp836
S'bootloader'
p837
(dp838
S'extended_fuses'
p839
S'0xfd'
p840
sS'high_fuses'
p841
S'0xDA'
p842
sS'low_fuses'
p843
S'0xFF'
p844
sS'lock_bits'
p845
S'0xcf'
p846
sS'file'
p847
S'ATmegaBOOT_168_atmega328.hex'
p848
sS'path'
p849
S'atmega'
p850
sS'unlock_bits'
p851
S'0xff'
p852
ssS'upload'
p853
(dp854
S'protocol'
p855
S'arduino'
p856
sS'maximum_size'
p857
S'30720'
p858
sS'speed'
p859
S'57600'
p860
ssS'build'
p861
(dp862
S'core'
p863
S'arduino'
p864
sS'mcu'
p865
S'atmega328p'
p866
sS'f_cpu'
p867
S'16000000L'
p868
sS'variant'
p869
S'standard'
p870
ssS'name'
p871
S'Arduino Pro or Pro Mini (5V, 16 MHz) w/ ATmega328'
p872
saa(lp873
S'pro5v'
p874
a(dp875
S'bootloader'
p876
(dp877
S'extended_fuses'
p878
S'0xf8'
p879
sS'high_fuses'
p880
S'0xdd'
p881
sS'low_fuses'
p882
S'0xff'
p883
sS'lock_bits'
p884
S'0xcf'
p885
sS'file'
p886
S'ATmegaBOOT_168_diecimila.hex'
p887
sS'path'
p888
S'atmega'
p889
sS'unlock_bits'
p890
S'0xff'
p891
ssS'upload'
p892
(dp893
S'protocol'
p894
S'arduino'
p895
sS'maximum_size'
p896
S'14336'
p897
sS'speed'
p898
S'19200'
p899
ssS'build'
p900
(dp901
S'core'
p902
S'arduino'
p903
sS'mcu'
p904
S'atmega168'
p905
sS'f_cpu'
p906
S'16000000L'
p907
sS'variant'
p908
S'standard'
p909
ssS'name'
p910
S'Arduino Pro or Pro Mini (5V, 16 MHz) w/ ATmega168'
p911
saa(lp912
S'pro328'
p913
a(dp914
S'bootloader'
p915
(dp916
S'extended_fuses'
p917
S'0xfd'
p918
sS'high_fuses'
p919
S'0xDA'
p920
sS'low_fuses'
p921
S'0xFF'
p922
sS'lock_bits'
p923
S'0xcf'
p924
sS'file'
p925
S'ATmegaBOOT_168_atmega328_pro_8MHz.hex'
p926
sS'path'
p927
S'atmega'
p928
sS'unlock_bits'
p929
S'0xff'
p930
ssS'upload'
p931
(dp932
S'protocol'
p933
S'arduino'
p934
sS'maximum_size'
p935
S'30720'
p936
sS'speed'
p937
S'57600'
p938
ssS'build'
p939
(dp940
S'core'
p941
S'arduino'
p942
sS'mcu'
p943
S'atmega328p'
p944
sS'f_cpu'
p945
S'8000000L'
p946
sS'variant'
p947
S'standard'
p948
ssS'name'
p949
S'Arduino Pro or Pro Mini (3.3V, 8 MHz) w/ ATmega328'
p950
saa(lp951
S'pro'
p952
a(dp953
S'bootloader'
p954
(dp955
S'extended_fuses'
p956
S'0xf8'
p957
sS'high_fuses'
p958
S'0xdd'
p959
sS'low_fuses'
p960
S'0xc6'
p961
sS'lock_bits'
p962
S'0xcf'
p963
sS'file'
p964
S'ATmegaBOOT_168_pro_8MHz.hex'
p965
sS'path'
p966
S'atmega'
p967
sS'unlock_bits'
p968
S'0xff'
p969
ssS'upload'
p970
(dp971
S'protocol'
p972
S'arduino'
p973
sS'maximum_size'
p974
S'14336'
p975
sS'speed'
p976
S'19200'
p977
ssS'build'
p978
(dp979
S'core'
p980
S'arduino'
p981
sS'mcu'
p982
S'atmega168'
p983
sS'f_cpu'
p984
S'8000000L'
p985
sS'variant'
p986
S'standard'
p987
ssS'name'
p988
S'Arduino Pro or Pro Mini (3.3V, 8 MHz) w/ ATmega168'
p989
saa(lp990
S'atmega168'
p991
a(dp992
S'bootloader'
p993
(dp994
S'extended_fuses'
p995
S'0xf8'
p996
sS'high_fuses'
p997
S'0xdd'
p998
sS'low_fuses'
p999
S'0xff'
p1000
sS'lock_bits'
p1001
S'0xcf'
p1002
sS'file'
p1003
S'ATmegaBOOT_168_ng.hex'
p1004
sS'path'
p1005
S'atmega'
p1006
sS'unlock_bits'
p1007
S'0xff'
p1008
ssS'upload'
p1009
(dp1010
S'protocol'
p1011
S'arduino'
p1012
sS'maximum_size'
p1013
S'14336'
p1014
sS'speed'
p1015
S'19200'
p1016
ssS'build'
p1017
(dp1018
S'core'
p1019
S'arduino'
p1020
sS'mcu'
p1021
S'atmega168'
p1022
sS'f_cpu'
p1023
S'16000000L'
p1024
sS'variant'
p1025
S'standard'
p1026
ssS'name'
p1027
S'Arduino NG or older w/ ATmega168'
p1028
saa(lp1029
S'atmega8'
p1030
a(dp1031
S'bootloader'
p1032
(dp1033
S'high_fuses'
p1034
S'0xca'
p1035
sS'low_fuses'
p1036
S'0xdf'
p1037
sS'lock_bits'
p1038
S'0xcf'
p1039
sS'file'
p1040
S'ATmegaBOOT-prod-firmware-2009-11-07.hex'
p1041
sS'path'
p1042
S'atmega8'
p1043
sS'unlock_bits'
p1044
S'0xff'
p1045
ssS'upload'
p1046
(dp1047
S'protocol'
p1048
S'arduino'
p1049
sS'maximum_size'
p1050
S'7168'
p1051
sS'speed'
p1052
S'19200'
p1053
ssS'build'
p1054
(dp1055
S'core'
p1056
S'arduino'
p1057
sS'mcu'
p1058
S'atmega8'
p1059
sS'f_cpu'
p1060
S'16000000L'
p1061
sS'variant'
p1062
S'standard'
p1063
ssS'name'
p1064
S'Arduino NG or older w/ ATmega8'
p1065
saa(lp1066
S'robotControl'
p1067
a(dp1068
S'bootloader'
p1069
(dp1070
S'extended_fuses'
p1071
S'0xcb'
p1072
sS'high_fuses'
p1073
S'0xd8'
p1074
sS'low_fuses'
p1075
S'0xff'
p1076
sS'lock_bits'
p1077
S'0xef'
p1078
sS'file'
p1079
S'Caterina-Robot-Control.hex'
p1080
sS'path'
p1081
S'caterina-Arduino_Robot'
p1082
sS'unlock_bits'
p1083
S'0xff'
p1084
ssS'upload'
p1085
(dp1086
S'protocol'
p1087
S'avr109'
p1088
sS'maximum_size'
p1089
S'28672'
p1090
sS'speed'
p1091
S'57600'
p1092
sS'disable_flushing'
p1093
S'true'
p1094
ssS'build'
p1095
(dp1096
S'core'
p1097
S'robot'
p1098
sS'f_cpu'
p1099
S'16000000L'
p1100
sS'vid'
p1101
S'0x2341'
p1102
sS'pid'
p1103
S'0x8038'
p1104
sS'variant'
p1105
S'robot_control'
p1106
sS'mcu'
p1107
S'atmega32u4'
p1108
ssS'name'
p1109
S'Arduino Robot Control'
p1110
saa(lp1111
S'robotMotor'
p1112
a(dp1113
S'bootloader'
p1114
(dp1115
S'extended_fuses'
p1116
S'0xcb'
p1117
sS'high_fuses'
p1118
S'0xd8'
p1119
sS'low_fuses'
p1120
S'0xff'
p1121
sS'lock_bits'
p1122
S'0xef'
p1123
sS'file'
p1124
S'Caterina-Robot-Motor.hex'
p1125
sS'path'
p1126
S'caterina-Arduino_Robot'
p1127
sS'unlock_bits'
p1128
S'0xff'
p1129
ssS'upload'
p1130
(dp1131
S'protocol'
p1132
S'avr109'
p1133
sS'maximum_size'
p1134
S'28672'
p1135
sS'speed'
p1136
S'57600'
p1137
sS'disable_flushing'
p1138
S'true'
p1139
ssS'build'
p1140
(dp1141
S'core'
p1142
S'robot'
p1143
sS'f_cpu'
p1144
S'16000000L'
p1145
sS'vid'
p1146
S'0x2341'
p1147
sS'pid'
p1148
S'0x8039'
p1149
sS'variant'
p1150
S'robot_motor'
p1151
sS'mcu'
p1152
S'atmega32u4'
p1153
ssS'name'
p1154
S'Arduino Robot Motor'
p1155
saatp1156
Rp1157
(dp1158
S'default'
p1159
S'uno'
p1160
sbtp1161
a(S'used_libs'
p1162
(lp1163
S'/usr/share/arduino/libraries/Servo'
p1164
aS'/usr/share/arduino/hardware/arduino/cores/arduino'
p1165
atp1166
a(S'make'
p1167
S'/usr/share/arduino/hardware/tools/avr/bin/make'
p1168
tp1169
a(S'build_dir'
p1170
S'.build/uno'
p1171
tp1172
a(S'cc'
p1173
S'/usr/share/arduino/hardware/tools/avr/bin/avr-gcc'
p1174
tp1175
a(S'cflags'
p1176
g2
(g3
g4
(lp1177
tp1178
Rp1179
tp1180
a(S'cxxflags'
p1181
g2
(g3
g4
(lp1182
S'-fno-exceptions'
p1183
atp1184
Rp1185
tp1186
a(S'arduino_variants_dir'
p1187
S'/usr/share/arduino/hardware/arduino/variants'
p1188
tp1189
a(S'stty'
p1190
S'/bin/stty'
p1191
tp1192
a(S'version.txt'
p1193
S'/usr/share/arduino/lib/version.txt'
p1194
tp1195
a(S'arduino_core_dir'
p1196
g1165
tp1197
a(S'boards.txt'
p1198
S'/usr/share/arduino/hardware/arduino/boards.txt'
p1199
tp1200
a(S'avrdude.conf'
p1201
S'/usr/share/arduino/hardware/tools/avrdude.conf'
p1202
tp1203
a(g42
g2
(g3
g4
(lp1204
S'.build/uno/src/dependencies.d'
p1205
aS'.build/uno/arduino/dependencies.d'
p1206
aS'.build/uno/Servo/dependencies.d'
p1207
atp1208
Rp1209
tp1210
a.